; Function Attrs: mustprogress uwtable
define void @_ZN7rocksdb11FSFileState22DropRandomUnsyncedDataEPNS_6RandomE(ptr noalias nocapture writeonly sret(%"class.rocksdb::IOStatus") align 8 %agg.result, ptr noundef nonnull align 8 dereferenceable(88) %this, ptr nocapture noundef %rand) local_unnamed_addr #2 align 2 personality ptr @__gxx_personality_v0 {
entry:
  %buffer_ = getelementptr inbounds i8, ptr %this, i64 56
  %call = tail call noundef i64 @_ZNKSt7__cxx1112basic_stringIcSt11char_traitsIcESaIcEE4sizeEv(ptr noundef nonnull align 8 dereferenceable(32) %buffer_) #21
  %conv = trunc i64 %call to i32
  %0 = load i32, ptr %rand, align 4
  %conv.i.i = zext i32 %0 to i64
  %mul.i.i = mul nuw nsw i64 %conv.i.i, 16807
  %shr.i.i = lshr i64 %mul.i.i, 31
  %and.i.i = and i64 %mul.i.i, 2147483647
  %add.i.i = add nuw nsw i64 %shr.i.i, %and.i.i
  %conv2.i.i = trunc i64 %add.i.i to i32
  %cmp.i.i = icmp slt i32 %conv2.i.i, 0
  %sub.i.i = add i32 %conv2.i.i, -2147483647
  %spec.select.i.i = select i1 %cmp.i.i, i32 %sub.i.i, i32 %conv2.i.i
  store i32 %spec.select.i.i, ptr %rand, align 4
  %rem.i = urem i32 %spec.select.i.i, %conv
  %conv3 = zext i32 %rem.i to i64
  tail call void @_ZNSt7__cxx1112basic_stringIcSt11char_traitsIcESaIcEE6resizeEm(ptr noundef nonnull align 8 dereferenceable(32) %buffer_, i64 noundef %conv3)
  store i8 0, ptr %agg.result, align 8, !alias.scope !7
  %subcode_.i.i.i.i = getelementptr inbounds i8, ptr %agg.result, i64 1
  store i8 0, ptr %subcode_.i.i.i.i, align 1, !alias.scope !7
  %sev_.i.i.i.i = getelementptr inbounds i8, ptr %agg.result, i64 2
  %state_.i.i.i.i = getelementptr inbounds i8, ptr %agg.result, i64 8
  store ptr null, ptr %state_.i.i.i.i, align 8, !alias.scope !7
  store i32 0, ptr %sev_.i.i.i.i, align 2, !alias.scope !7
  ret void
}